(dp1
S'Scs'
p2
(imodules.personne.Personne
Fiche
p3
(dp4
S'messagerie'
p5
(dp6
sS'nom'
p7
S''
sS'pseudo'
p8
g2
sS'sexe'
p9
I0
sS'allegance'
p10
I-1
sbsS'scs1'
p11
(imodules.personne.Personne
Fiche
p12
(dp13
g5
(dp14
sg7
S''
sg8
g11
sg9
I0
sg10
I-1
sbsS'spi2011061'
p15
(imodules.personne.Personne
Fiche
p16
(dp17
g5
(dp18
sg7
S''
sg8
g15
sg9
I0
sg10
I-1
sbsS'spi2011603'
p19
(imodules.personne.Personne
Fiche
p20
(dp21
g5
(dp22
sg7
S''
sg8
g19
sg9
I0
sg10
I-1
sbsS'jblb_away'
p23
(imodules.personne.Personne
Fiche
p24
(dp25
g7
S''
sg9
I0
sg8
g23
sg5
(dp26
sg10
I-1
sbsS'scs'
p27
(imodules.personne.Personne
Fiche
p28
(dp29
g5
(dp30
sg7
S''
sg8
g27
sg9
I0
sg10
I-1
sbsS'alice'
p31
(imodules.personne.Personne
Fiche
p32
(dp33
g7
S''
sg9
I0
sg8
g31
sg5
(dp34
sg10
I-1
sbsS'jblb'
p35
(imodules.personne.Personne
Fiche
p36
(dp37
g7
S''
sg9
I0
sg8
g35
sg5
(dp38
S'aluriak'
p39
S"le formatage des commandes est tr\xc3\xa8s pr\xc3\xa9cis, mais que je travaillerais bient\xc3\xb4t \xc3\xa0 l'assouplir (avec la lessive gorzyne)"
p40
ssg10
I-1
sbsS'aluriak'
p41
(imodules.personne.Personne
Fiche
p42
(dp43
g7
S'lucas'
p44
sg9
I1
sg8
g41
sg5
(dp45
sg10
I1
sbsS'colas1'
p46
(imodules.personne.Personne
Fiche
p47
(dp48
g7
S''
sg9
I0
sg8
g46
sg5
(dp49
S'aluriak'
p50
S'un jouer Onolen g\xc3\xa8rera le changement de pseudo'
p51
ssg10
I-1
sbsS'alurael'
p52
(imodules.personne.Personne
Fiche
p53
(dp54
g7
S''
sg9
I0
sg8
g52
sg5
(dp55
sg10
I-1
sbsS'Onolen'
p56
(imodules.personne.Personne
Fiche
p57
(dp58
g7
g56
sg9
I-1
sg8
g56
sg5
(dp59
S'jblb'
p60
S'"non rien"'
p61
ssg10
I1
sbsS'Pelle_'
p62
(imodules.personne.Personne
Fiche
p63
(dp64
g5
(dp65
sg7
S''
sg8
g62
sg9
I0
sg10
I-1
sbsS'Pelle1'
p66
(imodules.personne.Personne
Fiche
p67
(dp68
g5
(dp69
sg7
S''
sg8
g66
sg9
I0
sg10
I-1
sbsS'teuse'
p70
(imodules.personne.Personne
Fiche
p71
(dp72
g5
(dp73
sg7
S''
sg8
g70
sg9
I0
sg10
I-1
sbsS'matael'
p74
(imodules.personne.Personne
Fiche
p75
(dp76
g7
S''
sg9
I0
sg8
g74
sg5
(dp77
sg10
I-1
sbsS'kamikaze_'
p78
(imodules.personne.Personne
Fiche
p79
(dp80
g5
(dp81
sg7
S''
sg8
g78
sg9
I0
sg10
I-1
sbs.