(imodules.todolist.todolist
todoList
p1
(dp2
S'IDLibre'
p3
I1
sS'entree'
p4
(lp5
(imodules.todolist.todolist
todoEntree
p6
(dp7
S'intitule'
p8
S'plouf'
p9
sS'isChecked'
p10
I00
sS'auteur'
p11
S'aluriak'
p12
sS'ID'
p13
I0
sbasb.